#include <math.h>
#include <stdio.h>
#include <stdlib.h>
#include <string.h>

int main(){
	int N,i,k;
        char lian[300],fanlian[300]={0};
         scanf("%d",&N);
	for(i=0;i<N;i++){
scanf("%s",lian);
for(k=0;k<strlen(lian);k++){
if(lian[k]=='A'){fanlian[k]='T';}
if(lian[k]=='G'){fanlian[k]='C';}
if(lian[k]=='C'){fanlian[k]='G';}
if(lian[k]=='T'){fanlian[k]='A';}
printf("%c",fanlian[k]);
} 
printf("\n");
}
	return 0;
}